target datalayout = "e-m:e-p270:32:32-p271:32:32-p272:64:64-i64:64-i128:128-f80:128-n8:16:32:64-S128"
target triple = "x86_64-pc-linux-gnu"

%struct.opj_jp2 = type { ptr, ptr, ptr, i32, i32, i32, i32, i32, i32, i32, i32, i32, i32, i32, i32, i32, i32, ptr, ptr, i64, i64, i32, i32, i32, %struct.opj_jp2_color, i32, i8, i8 }
%struct.opj_jp2_color = type { ptr, i32, ptr, ptr, i8 }
%struct.opj_jp2_img_header_writer_handler = type { ptr, ptr, i32 }

@.str.77 = private unnamed_addr constant [43 x i8] c"Not enough memory to hold JP2 Header data\0A\00", align 1
@.str.78 = private unnamed_addr constant [43 x i8] c"Stream error while writing JP2 Header box\0A\00", align 1

; Function Attrs: nounwind uwtable
define internal i32 @opj_jp2_write_jp2h(ptr noundef %0, ptr noundef %1, ptr noundef %2) #0 {
  %4 = alloca i32, align 4
  %5 = alloca ptr, align 8
  %6 = alloca ptr, align 8
  %7 = alloca ptr, align 8
  %8 = alloca [4 x %struct.opj_jp2_img_header_writer_handler], align 16
  %9 = alloca ptr, align 8
  %10 = alloca i32, align 4
  %11 = alloca i32, align 4
  %12 = alloca i32, align 4
  %13 = alloca i32, align 4
  %14 = alloca [8 x i8], align 1
  %15 = alloca i32, align 4
  store ptr %0, ptr %5, align 8, !tbaa !3
  store ptr %1, ptr %6, align 8, !tbaa !8
  store ptr %2, ptr %7, align 8, !tbaa !12
  call void @llvm.lifetime.start.p0(i64 96, ptr %8) #5
  call void @llvm.lifetime.start.p0(i64 8, ptr %9) #5
  call void @llvm.lifetime.start.p0(i64 4, ptr %10) #5
  call void @llvm.lifetime.start.p0(i64 4, ptr %11) #5
  call void @llvm.lifetime.start.p0(i64 4, ptr %12) #5
  store i32 8, ptr %12, align 4, !tbaa !39
  call void @llvm.lifetime.start.p0(i64 4, ptr %13) #5
  store i32 1, ptr %13, align 4, !tbaa !39
  call void @llvm.lifetime.start.p0(i64 8, ptr %14) #5
  %16 = getelementptr inbounds [4 x %struct.opj_jp2_img_header_writer_handler], ptr %8, i64 0, i64 0
  call void @llvm.memset.p0.i64(ptr align 16 %16, i8 0, i64 96, i1 false)
  %17 = load ptr, ptr %5, align 8, !tbaa !3
  %18 = getelementptr inbounds nuw %struct.opj_jp2, ptr %17, i32 0, i32 6
  %19 = load i32, ptr %18, align 4, !tbaa !61
  %20 = icmp eq i32 %19, 255
  br i1 %20, label %21, label %28

21:                                               ; preds = %3
  store i32 3, ptr %11, align 4, !tbaa !39
  %22 = getelementptr inbounds [4 x %struct.opj_jp2_img_header_writer_handler], ptr %8, i64 0, i64 0
  %23 = getelementptr inbounds nuw %struct.opj_jp2_img_header_writer_handler, ptr %22, i32 0, i32 0
  store ptr @opj_jp2_write_ihdr, ptr %23, align 16, !tbaa !187
  %24 = getelementptr inbounds [4 x %struct.opj_jp2_img_header_writer_handler], ptr %8, i64 0, i64 1
  %25 = getelementptr inbounds nuw %struct.opj_jp2_img_header_writer_handler, ptr %24, i32 0, i32 0
  store ptr @opj_jp2_write_bpcc, ptr %25, align 8, !tbaa !187
  %26 = getelementptr inbounds [4 x %struct.opj_jp2_img_header_writer_handler], ptr %8, i64 0, i64 2
  %27 = getelementptr inbounds nuw %struct.opj_jp2_img_header_writer_handler, ptr %26, i32 0, i32 0
  store ptr @opj_jp2_write_colr, ptr %27, align 16, !tbaa !187
  br label %33

28:                                               ; preds = %3
  store i32 2, ptr %11, align 4, !tbaa !39
  %29 = getelementptr inbounds [4 x %struct.opj_jp2_img_header_writer_handler], ptr %8, i64 0, i64 0
  %30 = getelementptr inbounds nuw %struct.opj_jp2_img_header_writer_handler, ptr %29, i32 0, i32 0
  store ptr @opj_jp2_write_ihdr, ptr %30, align 16, !tbaa !187
  %31 = getelementptr inbounds [4 x %struct.opj_jp2_img_header_writer_handler], ptr %8, i64 0, i64 1
  %32 = getelementptr inbounds nuw %struct.opj_jp2_img_header_writer_handler, ptr %31, i32 0, i32 0
  store ptr @opj_jp2_write_colr, ptr %32, align 8, !tbaa !187
  br label %33

33:                                               ; preds = %28, %21
  %34 = load ptr, ptr %5, align 8, !tbaa !3
  %35 = getelementptr inbounds nuw %struct.opj_jp2, ptr %34, i32 0, i32 24
  %36 = getelementptr inbounds nuw %struct.opj_jp2_color, ptr %35, i32 0, i32 2
  %37 = load ptr, ptr %36, align 8, !tbaa !33
  %38 = icmp ne ptr %37, null
  br i1 %38, label %39, label %46

39:                                               ; preds = %33
  %40 = load i32, ptr %11, align 4, !tbaa !39
  %41 = sext i32 %40 to i64
  %42 = getelementptr inbounds [4 x %struct.opj_jp2_img_header_writer_handler], ptr %8, i64 0, i64 %41
  %43 = getelementptr inbounds nuw %struct.opj_jp2_img_header_writer_handler, ptr %42, i32 0, i32 0
  store ptr @opj_jp2_write_cdef, ptr %43, align 8, !tbaa !187
  %44 = load i32, ptr %11, align 4, !tbaa !39
  %45 = add nsw i32 %44, 1
  store i32 %45, ptr %11, align 4, !tbaa !39
  br label %46

46:                                               ; preds = %39, %33
  %47 = getelementptr inbounds [8 x i8], ptr %14, i64 0, i64 0
  %48 = getelementptr inbounds i8, ptr %47, i64 4
  call void @opj_write_bytes_LE(ptr noundef %48, i32 noundef 1785737832, i32 noundef 4)
  %49 = getelementptr inbounds [4 x %struct.opj_jp2_img_header_writer_handler], ptr %8, i64 0, i64 0
  store ptr %49, ptr %9, align 8, !tbaa !189
  store i32 0, ptr %10, align 4, !tbaa !39
  br label %50

50:                                               ; preds = %79, %46
  %51 = load i32, ptr %10, align 4, !tbaa !39
  %52 = load i32, ptr %11, align 4, !tbaa !39
  %53 = icmp slt i32 %51, %52
  br i1 %53, label %54, label %82

54:                                               ; preds = %50
  %55 = load ptr, ptr %9, align 8, !tbaa !189
  %56 = getelementptr inbounds nuw %struct.opj_jp2_img_header_writer_handler, ptr %55, i32 0, i32 0
  %57 = load ptr, ptr %56, align 8, !tbaa !187
  %58 = load ptr, ptr %5, align 8, !tbaa !3
  %59 = load ptr, ptr %9, align 8, !tbaa !189
  %60 = getelementptr inbounds nuw %struct.opj_jp2_img_header_writer_handler, ptr %59, i32 0, i32 2
  %61 = call ptr %57(ptr noundef %58, ptr noundef %60)
  %62 = load ptr, ptr %9, align 8, !tbaa !189
  %63 = getelementptr inbounds nuw %struct.opj_jp2_img_header_writer_handler, ptr %62, i32 0, i32 1
  store ptr %61, ptr %63, align 8, !tbaa !191
  %64 = load ptr, ptr %9, align 8, !tbaa !189
  %65 = getelementptr inbounds nuw %struct.opj_jp2_img_header_writer_handler, ptr %64, i32 0, i32 1
  %66 = load ptr, ptr %65, align 8, !tbaa !191
  %67 = icmp eq ptr %66, null
  br i1 %67, label %68, label %71

68:                                               ; preds = %54
  %69 = load ptr, ptr %7, align 8, !tbaa !12
  %70 = call i32 (ptr, i32, ptr, ...) @opj_event_msg(ptr noundef %69, i32 noundef 1, ptr noundef @.str.77)
  store i32 0, ptr %13, align 4, !tbaa !39
  br label %82

71:                                               ; preds = %54
  %72 = load ptr, ptr %9, align 8, !tbaa !189
  %73 = getelementptr inbounds nuw %struct.opj_jp2_img_header_writer_handler, ptr %72, i32 0, i32 2
  %74 = load i32, ptr %73, align 8, !tbaa !192
  %75 = load i32, ptr %12, align 4, !tbaa !39
  %76 = add i32 %75, %74
  store i32 %76, ptr %12, align 4, !tbaa !39
  %77 = load ptr, ptr %9, align 8, !tbaa !189
  %78 = getelementptr inbounds nuw %struct.opj_jp2_img_header_writer_handler, ptr %77, i32 1
  store ptr %78, ptr %9, align 8, !tbaa !189
  br label %79

79:                                               ; preds = %71
  %80 = load i32, ptr %10, align 4, !tbaa !39
  %81 = add nsw i32 %80, 1
  store i32 %81, ptr %10, align 4, !tbaa !39
  br label %50, !llvm.loop !193

82:                                               ; preds = %68, %50
  %83 = load i32, ptr %13, align 4, !tbaa !39
  %84 = icmp ne i32 %83, 0
  br i1 %84, label %107, label %85

85:                                               ; preds = %82
  %86 = getelementptr inbounds [4 x %struct.opj_jp2_img_header_writer_handler], ptr %8, i64 0, i64 0
  store ptr %86, ptr %9, align 8, !tbaa !189
  store i32 0, ptr %10, align 4, !tbaa !39
  br label %87

87:                                               ; preds = %103, %85
  %88 = load i32, ptr %10, align 4, !tbaa !39
  %89 = load i32, ptr %11, align 4, !tbaa !39
  %90 = icmp slt i32 %88, %89
  br i1 %90, label %91, label %106

91:                                               ; preds = %87
  %92 = load ptr, ptr %9, align 8, !tbaa !189
  %93 = getelementptr inbounds nuw %struct.opj_jp2_img_header_writer_handler, ptr %92, i32 0, i32 1
  %94 = load ptr, ptr %93, align 8, !tbaa !191
  %95 = icmp ne ptr %94, null
  br i1 %95, label %96, label %100

96:                                               ; preds = %91
  %97 = load ptr, ptr %9, align 8, !tbaa !189
  %98 = getelementptr inbounds nuw %struct.opj_jp2_img_header_writer_handler, ptr %97, i32 0, i32 1
  %99 = load ptr, ptr %98, align 8, !tbaa !191
  call void @opj_free(ptr noundef %99)
  br label %100

100:                                              ; preds = %96, %91
  %101 = load ptr, ptr %9, align 8, !tbaa !189
  %102 = getelementptr inbounds nuw %struct.opj_jp2_img_header_writer_handler, ptr %101, i32 1
  store ptr %102, ptr %9, align 8, !tbaa !189
  br label %103

103:                                              ; preds = %100
  %104 = load i32, ptr %10, align 4, !tbaa !39
  %105 = add nsw i32 %104, 1
  store i32 %105, ptr %10, align 4, !tbaa !39
  br label %87, !llvm.loop !194

106:                                              ; preds = %87
  store i32 0, ptr %4, align 4
  store i32 1, ptr %15, align 4
  br label %176

107:                                              ; preds = %82
  %108 = getelementptr inbounds [8 x i8], ptr %14, i64 0, i64 0
  %109 = load i32, ptr %12, align 4, !tbaa !39
  call void @opj_write_bytes_LE(ptr noundef %108, i32 noundef %109, i32 noundef 4)
  %110 = load ptr, ptr %6, align 8, !tbaa !8
  %111 = getelementptr inbounds [8 x i8], ptr %14, i64 0, i64 0
  %112 = load ptr, ptr %7, align 8, !tbaa !12
  %113 = call i64 @opj_stream_write_data(ptr noundef %110, ptr noundef %111, i64 noundef 8, ptr noundef %112)
  %114 = icmp ne i64 %113, 8
  br i1 %114, label %115, label %118

115:                                              ; preds = %107
  %116 = load ptr, ptr %7, align 8, !tbaa !12
  %117 = call i32 (ptr, i32, ptr, ...) @opj_event_msg(ptr noundef %116, i32 noundef 1, ptr noundef @.str.78)
  store i32 0, ptr %13, align 4, !tbaa !39
  br label %118

118:                                              ; preds = %115, %107
  %119 = load i32, ptr %13, align 4, !tbaa !39
  %120 = icmp ne i32 %119, 0
  br i1 %120, label %121, label %153

121:                                              ; preds = %118
  %122 = getelementptr inbounds [4 x %struct.opj_jp2_img_header_writer_handler], ptr %8, i64 0, i64 0
  store ptr %122, ptr %9, align 8, !tbaa !189
  store i32 0, ptr %10, align 4, !tbaa !39
  br label %123

123:                                              ; preds = %149, %121
  %124 = load i32, ptr %10, align 4, !tbaa !39
  %125 = load i32, ptr %11, align 4, !tbaa !39
  %126 = icmp slt i32 %124, %125
  br i1 %126, label %127, label %152

127:                                              ; preds = %123
  %128 = load ptr, ptr %6, align 8, !tbaa !8
  %129 = load ptr, ptr %9, align 8, !tbaa !189
  %130 = getelementptr inbounds nuw %struct.opj_jp2_img_header_writer_handler, ptr %129, i32 0, i32 1
  %131 = load ptr, ptr %130, align 8, !tbaa !191
  %132 = load ptr, ptr %9, align 8, !tbaa !189
  %133 = getelementptr inbounds nuw %struct.opj_jp2_img_header_writer_handler, ptr %132, i32 0, i32 2
  %134 = load i32, ptr %133, align 8, !tbaa !192
  %135 = zext i32 %134 to i64
  %136 = load ptr, ptr %7, align 8, !tbaa !12
  %137 = call i64 @opj_stream_write_data(ptr noundef %128, ptr noundef %131, i64 noundef %135, ptr noundef %136)
  %138 = load ptr, ptr %9, align 8, !tbaa !189
  %139 = getelementptr inbounds nuw %struct.opj_jp2_img_header_writer_handler, ptr %138, i32 0, i32 2
  %140 = load i32, ptr %139, align 8, !tbaa !192
  %141 = zext i32 %140 to i64
  %142 = icmp ne i64 %137, %141
  br i1 %142, label %143, label %146

143:                                              ; preds = %127
  %144 = load ptr, ptr %7, align 8, !tbaa !12
  %145 = call i32 (ptr, i32, ptr, ...) @opj_event_msg(ptr noundef %144, i32 noundef 1, ptr noundef @.str.78)
  store i32 0, ptr %13, align 4, !tbaa !39
  br label %152

146:                                              ; preds = %127
  %147 = load ptr, ptr %9, align 8, !tbaa !189
  %148 = getelementptr inbounds nuw %struct.opj_jp2_img_header_writer_handler, ptr %147, i32 1
  store ptr %148, ptr %9, align 8, !tbaa !189
  br label %149

149:                                              ; preds = %146
  %150 = load i32, ptr %10, align 4, !tbaa !39
  %151 = add nsw i32 %150, 1
  store i32 %151, ptr %10, align 4, !tbaa !39
  br label %123, !llvm.loop !195

152:                                              ; preds = %143, %123
  br label %153

153:                                              ; preds = %152, %118
  %154 = getelementptr inbounds [4 x %struct.opj_jp2_img_header_writer_handler], ptr %8, i64 0, i64 0
  store ptr %154, ptr %9, align 8, !tbaa !189
  store i32 0, ptr %10, align 4, !tbaa !39
  br label %155

155:                                              ; preds = %171, %153
  %156 = load i32, ptr %10, align 4, !tbaa !39
  %157 = load i32, ptr %11, align 4, !tbaa !39
  %158 = icmp slt i32 %156, %157
  br i1 %158, label %159, label %174

159:                                              ; preds = %155
  %160 = load ptr, ptr %9, align 8, !tbaa !189
  %161 = getelementptr inbounds nuw %struct.opj_jp2_img_header_writer_handler, ptr %160, i32 0, i32 1
  %162 = load ptr, ptr %161, align 8, !tbaa !191
  %163 = icmp ne ptr %162, null
  br i1 %163, label %164, label %168

164:                                              ; preds = %159
  %165 = load ptr, ptr %9, align 8, !tbaa !189
  %166 = getelementptr inbounds nuw %struct.opj_jp2_img_header_writer_handler, ptr %165, i32 0, i32 1
  %167 = load ptr, ptr %166, align 8, !tbaa !191
  call void @opj_free(ptr noundef %167)
  br label %168

168:                                              ; preds = %164, %159
  %169 = load ptr, ptr %9, align 8, !tbaa !189
  %170 = getelementptr inbounds nuw %struct.opj_jp2_img_header_writer_handler, ptr %169, i32 1
  store ptr %170, ptr %9, align 8, !tbaa !189
  br label %171

171:                                              ; preds = %168
  %172 = load i32, ptr %10, align 4, !tbaa !39
  %173 = add nsw i32 %172, 1
  store i32 %173, ptr %10, align 4, !tbaa !39
  br label %155, !llvm.loop !196

174:                                              ; preds = %155
  %175 = load i32, ptr %13, align 4, !tbaa !39
  store i32 %175, ptr %4, align 4
  store i32 1, ptr %15, align 4
  br label %176

176:                                              ; preds = %174, %106
  call void @llvm.lifetime.end.p0(i64 8, ptr %14) #5
  call void @llvm.lifetime.end.p0(i64 4, ptr %13) #5
  call void @llvm.lifetime.end.p0(i64 4, ptr %12) #5
  call void @llvm.lifetime.end.p0(i64 4, ptr %11) #5
  call void @llvm.lifetime.end.p0(i64 4, ptr %10) #5
  call void @llvm.lifetime.end.p0(i64 8, ptr %9) #5
  call void @llvm.lifetime.end.p0(i64 96, ptr %8) #5
  %177 = load i32, ptr %4, align 4
  ret i32 %177
}