; Function Attrs: nounwind uwtable
define internal range(i32 0, 2) i32 @opj_jp2_write_jp2h(ptr noundef %0, ptr noundef %1, ptr noundef %2) #0 {
  %4 = alloca [4 x %struct.opj_jp2_img_header_writer_handler], align 16
  %5 = alloca [8 x i8], align 1
  call void @llvm.lifetime.start.p0(i64 96, ptr nonnull %4) #6
  call void @llvm.lifetime.start.p0(i64 8, ptr nonnull %5) #6
  call void @llvm.memset.p0.i64(ptr noundef nonnull align 16 dereferenceable(96) %4, i8 0, i64 96, i1 false)
  %6 = getelementptr inbounds nuw i8, ptr %0, i64 36
  %7 = load i32, ptr %6, align 4, !tbaa !90
  %8 = icmp eq i32 %7, 255
  br i1 %8, label %9, label %11

9:                                                ; preds = %3
  %10 = getelementptr inbounds nuw i8, ptr %4, i64 48
  store ptr @opj_jp2_write_colr, ptr %10, align 16, !tbaa !153
  br label %11

11:                                               ; preds = %3, %9
  %opj_jp2_write_colr.sink = phi ptr [ @opj_jp2_write_bpcc, %9 ], [ @opj_jp2_write_colr, %3 ]
  %.046 = phi i32 [ 3, %9 ], [ 2, %3 ]
  store ptr @opj_jp2_write_ihdr, ptr %4, align 16, !tbaa !153
  %12 = getelementptr inbounds nuw i8, ptr %4, i64 24
  store ptr %opj_jp2_write_colr.sink, ptr %12, align 8, !tbaa !153
  %13 = getelementptr inbounds nuw i8, ptr %0, i64 144
  %14 = load ptr, ptr %13, align 8, !tbaa !70
  %.not = icmp eq ptr %14, null
  br i1 %.not, label %19, label %15

15:                                               ; preds = %11
  %16 = zext nneg i32 %.046 to i64
  %17 = getelementptr inbounds nuw [4 x %struct.opj_jp2_img_header_writer_handler], ptr %4, i64 0, i64 %16
  store ptr @opj_jp2_write_cdef, ptr %17, align 8, !tbaa !153
  %18 = add nuw nsw i32 %.046, 1
  br label %19

19:                                               ; preds = %15, %11
  %.147 = phi i32 [ %18, %15 ], [ %.046, %11 ]
  %20 = getelementptr inbounds nuw i8, ptr %5, i64 4
  call void @opj_write_bytes_LE(ptr noundef nonnull %20, i32 noundef 1785737832, i32 noundef 4) #6
  br label %21

21:                                               ; preds = %19, %29
  %.04571 = phi i32 [ 8, %19 ], [ %31, %29 ]
  %.04870 = phi i32 [ 0, %19 ], [ %33, %29 ]
  %.05169 = phi ptr [ %4, %19 ], [ %32, %29 ]
  %22 = load ptr, ptr %.05169, align 8, !tbaa !153
  %23 = getelementptr inbounds nuw i8, ptr %.05169, i64 16
  %24 = call ptr %22(ptr noundef %0, ptr noundef nonnull %23) #6
  %25 = getelementptr inbounds nuw i8, ptr %.05169, i64 8
  store ptr %24, ptr %25, align 8, !tbaa !155
  %26 = icmp eq ptr %24, null
  br i1 %26, label %27, label %29

27:                                               ; preds = %21
  %28 = call i32 (ptr, i32, ptr, ...) @opj_event_msg(ptr noundef %2, i32 noundef 1, ptr noundef nonnull @.str.77) #6
  br label %34

29:                                               ; preds = %21
  %30 = load i32, ptr %23, align 8, !tbaa !156
  %31 = add i32 %30, %.04571
  %32 = getelementptr inbounds nuw i8, ptr %.05169, i64 24
  %33 = add nuw nsw i32 %.04870, 1
  %exitcond.not = icmp eq i32 %33, %.147
  br i1 %exitcond.not, label %.critedge, label %21, !llvm.loop !157

34:                                               ; preds = %27, %38
  %.14977 = phi i32 [ 0, %27 ], [ %40, %38 ]
  %.15276 = phi ptr [ %4, %27 ], [ %39, %38 ]
  %35 = getelementptr inbounds nuw i8, ptr %.15276, i64 8
  %36 = load ptr, ptr %35, align 8, !tbaa !155
  %.not59 = icmp eq ptr %36, null
  br i1 %.not59, label %38, label %37

37:                                               ; preds = %34
  call void @opj_free(ptr noundef nonnull %36) #6
  br label %38

38:                                               ; preds = %37, %34
  %39 = getelementptr inbounds nuw i8, ptr %.15276, i64 24
  %40 = add nuw nsw i32 %.14977, 1
  %exitcond81.not = icmp eq i32 %40, %.147
  br i1 %exitcond81.not, label %.loopexit, label %34, !llvm.loop !158

.critedge:                                        ; preds = %29
  call void @opj_write_bytes_LE(ptr noundef nonnull %5, i32 noundef %31, i32 noundef 4) #6
  %41 = call i64 @opj_stream_write_data(ptr noundef %1, ptr noundef nonnull %5, i64 noundef 8, ptr noundef %2) #6
  %.not60.not = icmp eq i64 %41, 8
  br i1 %.not60.not, label %.critedge65.preheader, label %.loopexit67.sink.split

.critedge65.preheader:                            ; preds = %.critedge, %.critedge65
  %.25073 = phi i32 [ %51, %.critedge65 ], [ 0, %.critedge ]
  %.25372 = phi ptr [ %50, %.critedge65 ], [ %4, %.critedge ]
  %42 = getelementptr inbounds nuw i8, ptr %.25372, i64 8
  %43 = load ptr, ptr %42, align 8, !tbaa !155
  %44 = getelementptr inbounds nuw i8, ptr %.25372, i64 16
  %45 = load i32, ptr %44, align 8, !tbaa !156
  %46 = zext i32 %45 to i64
  %47 = call i64 @opj_stream_write_data(ptr noundef %1, ptr noundef %43, i64 noundef %46, ptr noundef %2) #6
  %48 = load i32, ptr %44, align 8, !tbaa !156
  %49 = zext i32 %48 to i64
  %.not62 = icmp eq i64 %47, %49
  br i1 %.not62, label %.critedge65, label %.loopexit67.sink.split

.critedge65:                                      ; preds = %.critedge65.preheader
  %50 = getelementptr inbounds nuw i8, ptr %.25372, i64 24
  %51 = add nuw nsw i32 %.25073, 1
  %exitcond79.not = icmp eq i32 %51, %.147
  br i1 %exitcond79.not, label %.loopexit67, label %.critedge65.preheader, !llvm.loop !159

.loopexit67.sink.split:                           ; preds = %.critedge65.preheader, %.critedge
  %52 = call i32 (ptr, i32, ptr, ...) @opj_event_msg(ptr noundef %2, i32 noundef 1, ptr noundef nonnull @.str.78) #6
  br label %.loopexit67

.loopexit67:                                      ; preds = %.critedge65, %.loopexit67.sink.split
  %.2 = phi i32 [ 0, %.loopexit67.sink.split ], [ 1, %.critedge65 ]
  br label %53

53:                                               ; preds = %.loopexit67, %57
  %.375 = phi i32 [ 0, %.loopexit67 ], [ %59, %57 ]
  %.35474 = phi ptr [ %4, %.loopexit67 ], [ %58, %57 ]
  %54 = getelementptr inbounds nuw i8, ptr %.35474, i64 8
  %55 = load ptr, ptr %54, align 8, !tbaa !155
  %.not63 = icmp eq ptr %55, null
  br i1 %.not63, label %57, label %56

56:                                               ; preds = %53
  call void @opj_free(ptr noundef nonnull %55) #6
  br label %57

57:                                               ; preds = %56, %53
  %58 = getelementptr inbounds nuw i8, ptr %.35474, i64 24
  %59 = add nuw nsw i32 %.375, 1
  %exitcond80.not = icmp eq i32 %59, %.147
  br i1 %exitcond80.not, label %.loopexit, label %53, !llvm.loop !160

.loopexit:                                        ; preds = %57, %38
  %.055 = phi i32 [ 0, %38 ], [ %.2, %57 ]
  call void @llvm.lifetime.end.p0(i64 8, ptr nonnull %5) #6
  call void @llvm.lifetime.end.p0(i64 96, ptr nonnull %4) #6
  ret i32 %.055
}